target datalayout = "e-m:e-p270:32:32-p271:32:32-p272:64:64-i64:64-i128:128-f80:128-n8:16:32:64-S128"
target triple = "x86_64-pc-linux-gnu"

%struct.VP8Io = type { i32, i32, i32, i32, i32, ptr, ptr, ptr, i32, i32, ptr, ptr, ptr, ptr, i32, i64, ptr, i32, i32, i32, i32, i32, i32, i32, i32, i32, ptr }
%struct.WebPDecParams = type { ptr, ptr, ptr, ptr, i32, ptr, ptr, ptr, ptr, ptr, ptr, ptr, ptr, ptr }
%struct.WebPDecBuffer = type { i32, i32, i32, i32, %union.anon, [4 x i32], ptr }
%union.anon = type { %struct.WebPYUVABuffer }
%struct.WebPYUVABuffer = type { ptr, ptr, ptr, ptr, i32, i32, i32, i32, i64, i64, i64, i64 }

; Function Attrs: nounwind uwtable
define internal void @FillAlphaPlane(ptr noundef %0, i32 noundef %1, i32 noundef %2, i32 noundef %3) #0 {
  %5 = alloca ptr, align 8
  %6 = alloca i32, align 4
  %7 = alloca i32, align 4
  %8 = alloca i32, align 4
  %9 = alloca i32, align 4
  store ptr %0, ptr %5, align 8, !tbaa !44
  store i32 %1, ptr %6, align 4, !tbaa !19
  store i32 %2, ptr %7, align 4, !tbaa !19
  store i32 %3, ptr %8, align 4, !tbaa !19
  call void @llvm.lifetime.start.p0(i64 4, ptr %9) #6
  store i32 0, ptr %9, align 4, !tbaa !19
  br label %10

10:                                               ; preds = %23, %4
  %11 = load i32, ptr %9, align 4, !tbaa !19
  %12 = load i32, ptr %7, align 4, !tbaa !19
  %13 = icmp slt i32 %11, %12
  br i1 %13, label %14, label %26

14:                                               ; preds = %10
  %15 = load ptr, ptr %5, align 8, !tbaa !44
  %16 = load i32, ptr %6, align 4, !tbaa !19
  %17 = sext i32 %16 to i64
  %18 = mul i64 %17, 1
  call void @llvm.memset.p0.i64(ptr align 1 %15, i8 -1, i64 %18, i1 false)
  %19 = load i32, ptr %8, align 4, !tbaa !19
  %20 = load ptr, ptr %5, align 8, !tbaa !44
  %21 = sext i32 %19 to i64
  %22 = getelementptr inbounds i8, ptr %20, i64 %21
  store ptr %22, ptr %5, align 8, !tbaa !44
  br label %23

23:                                               ; preds = %14
  %24 = load i32, ptr %9, align 4, !tbaa !19
  %25 = add nsw i32 %24, 1
  store i32 %25, ptr %9, align 4, !tbaa !19
  br label %10, !llvm.loop !98

26:                                               ; preds = %10
  call void @llvm.lifetime.end.p0(i64 4, ptr %9) #6
  ret void
}

; Function Attrs: nounwind uwtable
define internal i32 @EmitAlphaYUV(ptr noundef %0, ptr noundef %1, i32 noundef %2) #0 {
  %4 = alloca ptr, align 8
  %5 = alloca ptr, align 8
  %6 = alloca i32, align 4
  %7 = alloca ptr, align 8
  %8 = alloca ptr, align 8
  %9 = alloca i32, align 4
  %10 = alloca i32, align 4
  %11 = alloca ptr, align 8
  %12 = alloca i32, align 4
  store ptr %0, ptr %4, align 8, !tbaa !8
  store ptr %1, ptr %5, align 8, !tbaa !3
  store i32 %2, ptr %6, align 4, !tbaa !19
  call void @llvm.lifetime.start.p0(i64 8, ptr %7) #6
  %13 = load ptr, ptr %4, align 8, !tbaa !8
  %14 = getelementptr inbounds nuw %struct.VP8Io, ptr %13, i32 0, i32 26
  %15 = load ptr, ptr %14, align 8, !tbaa !78
  store ptr %15, ptr %7, align 8, !tbaa !44
  call void @llvm.lifetime.start.p0(i64 8, ptr %8) #6
  %16 = load ptr, ptr %5, align 8, !tbaa !3
  %17 = getelementptr inbounds nuw %struct.WebPDecParams, ptr %16, i32 0, i32 0
  %18 = load ptr, ptr %17, align 8, !tbaa !28
  %19 = getelementptr inbounds nuw %struct.WebPDecBuffer, ptr %18, i32 0, i32 4
  store ptr %19, ptr %8, align 8, !tbaa !50
  call void @llvm.lifetime.start.p0(i64 4, ptr %9) #6
  %20 = load ptr, ptr %4, align 8, !tbaa !8
  %21 = getelementptr inbounds nuw %struct.VP8Io, ptr %20, i32 0, i32 3
  %22 = load i32, ptr %21, align 4, !tbaa !18
  store i32 %22, ptr %9, align 4, !tbaa !19
  call void @llvm.lifetime.start.p0(i64 4, ptr %10) #6
  %23 = load ptr, ptr %4, align 8, !tbaa !8
  %24 = getelementptr inbounds nuw %struct.VP8Io, ptr %23, i32 0, i32 4
  %25 = load i32, ptr %24, align 8, !tbaa !20
  store i32 %25, ptr %10, align 4, !tbaa !19
  call void @llvm.lifetime.start.p0(i64 8, ptr %11) #6
  %26 = load ptr, ptr %8, align 8, !tbaa !50
  %27 = getelementptr inbounds nuw %struct.WebPYUVABuffer, ptr %26, i32 0, i32 3
  %28 = load ptr, ptr %27, align 8, !tbaa !59
  %29 = load ptr, ptr %4, align 8, !tbaa !8
  %30 = getelementptr inbounds nuw %struct.VP8Io, ptr %29, i32 0, i32 2
  %31 = load i32, ptr %30, align 8, !tbaa !66
  %32 = sext i32 %31 to i64
  %33 = load ptr, ptr %8, align 8, !tbaa !50
  %34 = getelementptr inbounds nuw %struct.WebPYUVABuffer, ptr %33, i32 0, i32 7
  %35 = load i32, ptr %34, align 4, !tbaa !60
  %36 = sext i32 %35 to i64
  %37 = mul nsw i64 %32, %36
  %38 = getelementptr inbounds i8, ptr %28, i64 %37
  store ptr %38, ptr %11, align 8, !tbaa !44
  call void @llvm.lifetime.start.p0(i64 4, ptr %12) #6
  %39 = load ptr, ptr %7, align 8, !tbaa !44
  %40 = icmp ne ptr %39, null
  br i1 %40, label %41, label %68

41:                                               ; preds = %3
  store i32 0, ptr %12, align 4, !tbaa !19
  br label %42

42:                                               ; preds = %64, %41
  %43 = load i32, ptr %12, align 4, !tbaa !19
  %44 = load i32, ptr %10, align 4, !tbaa !19
  %45 = icmp slt i32 %43, %44
  br i1 %45, label %46, label %67

46:                                               ; preds = %42
  %47 = load ptr, ptr %11, align 8, !tbaa !44
  %48 = load ptr, ptr %7, align 8, !tbaa !44
  %49 = load i32, ptr %9, align 4, !tbaa !19
  %50 = sext i32 %49 to i64
  %51 = mul i64 %50, 1
  call void @llvm.memcpy.p0.p0.i64(ptr align 1 %47, ptr align 1 %48, i64 %51, i1 false)
  %52 = load ptr, ptr %4, align 8, !tbaa !8
  %53 = getelementptr inbounds nuw %struct.VP8Io, ptr %52, i32 0, i32 0
  %54 = load i32, ptr %53, align 8, !tbaa !81
  %55 = load ptr, ptr %7, align 8, !tbaa !44
  %56 = sext i32 %54 to i64
  %57 = getelementptr inbounds i8, ptr %55, i64 %56
  store ptr %57, ptr %7, align 8, !tbaa !44
  %58 = load ptr, ptr %8, align 8, !tbaa !50
  %59 = getelementptr inbounds nuw %struct.WebPYUVABuffer, ptr %58, i32 0, i32 7
  %60 = load i32, ptr %59, align 4, !tbaa !60
  %61 = load ptr, ptr %11, align 8, !tbaa !44
  %62 = sext i32 %60 to i64
  %63 = getelementptr inbounds i8, ptr %61, i64 %62
  store ptr %63, ptr %11, align 8, !tbaa !44
  br label %64

64:                                               ; preds = %46
  %65 = load i32, ptr %12, align 4, !tbaa !19
  %66 = add nsw i32 %65, 1
  store i32 %66, ptr %12, align 4, !tbaa !19
  br label %42, !llvm.loop !83

67:                                               ; preds = %42
  br label %81

68:                                               ; preds = %3
  %69 = load ptr, ptr %8, align 8, !tbaa !50
  %70 = getelementptr inbounds nuw %struct.WebPYUVABuffer, ptr %69, i32 0, i32 3
  %71 = load ptr, ptr %70, align 8, !tbaa !59
  %72 = icmp ne ptr %71, null
  br i1 %72, label %73, label %80

73:                                               ; preds = %68
  %74 = load ptr, ptr %11, align 8, !tbaa !44
  %75 = load i32, ptr %9, align 4, !tbaa !19
  %76 = load i32, ptr %10, align 4, !tbaa !19
  %77 = load ptr, ptr %8, align 8, !tbaa !50
  %78 = getelementptr inbounds nuw %struct.WebPYUVABuffer, ptr %77, i32 0, i32 7
  %79 = load i32, ptr %78, align 4, !tbaa !60
  call void @FillAlphaPlane(ptr noundef %74, i32 noundef %75, i32 noundef %76, i32 noundef %79)
  br label %80

80:                                               ; preds = %73, %68
  br label %81

81:                                               ; preds = %80, %67
  call void @llvm.lifetime.end.p0(i64 4, ptr %12) #6
  call void @llvm.lifetime.end.p0(i64 8, ptr %11) #6
  call void @llvm.lifetime.end.p0(i64 4, ptr %10) #6
  call void @llvm.lifetime.end.p0(i64 4, ptr %9) #6
  call void @llvm.lifetime.end.p0(i64 8, ptr %8) #6
  call void @llvm.lifetime.end.p0(i64 8, ptr %7) #6
  ret i32 0
}