; Function Attrs: nofree norecurse nosync nounwind memory(readwrite, inaccessiblemem: none) uwtable
define internal noundef i32 @EmitAlphaYUV(ptr noundef readonly captures(none) %0, ptr noundef readonly captures(none) %1, i32 %2) #3 {
  %4 = getelementptr inbounds nuw i8, ptr %0, i64 152
  %5 = load ptr, ptr %4, align 8, !tbaa !63
  %6 = load ptr, ptr %1, align 8, !tbaa !23
  %7 = getelementptr inbounds nuw i8, ptr %0, i64 12
  %8 = load i32, ptr %7, align 4, !tbaa !14
  %9 = getelementptr inbounds nuw i8, ptr %0, i64 16
  %10 = load i32, ptr %9, align 8, !tbaa !15
  %11 = getelementptr inbounds nuw i8, ptr %6, i64 40
  %12 = load ptr, ptr %11, align 8, !tbaa !43
  %13 = getelementptr inbounds nuw i8, ptr %0, i64 8
  %14 = load i32, ptr %13, align 8, !tbaa !51
  %15 = sext i32 %14 to i64
  %16 = getelementptr inbounds nuw i8, ptr %6, i64 60
  %17 = load i32, ptr %16, align 4, !tbaa !44
  %18 = sext i32 %17 to i64
  %19 = mul nsw i64 %18, %15
  %20 = getelementptr inbounds i8, ptr %12, i64 %19
  %.not = icmp eq ptr %5, null
  br i1 %.not, label %31, label %.preheader

.preheader:                                       ; preds = %3
  %21 = icmp sgt i32 %10, 0
  br i1 %21, label %.lr.ph, label %FillAlphaPlane.exit

.lr.ph:                                           ; preds = %.preheader
  %22 = sext i32 %8 to i64
  br label %23

23:                                               ; preds = %.lr.ph, %23
  %.029 = phi i32 [ 0, %.lr.ph ], [ %30, %23 ]
  %.02228 = phi ptr [ %20, %.lr.ph ], [ %29, %23 ]
  %.02327 = phi ptr [ %5, %.lr.ph ], [ %26, %23 ]
  tail call void @llvm.memcpy.p0.p0.i64(ptr align 1 %.02228, ptr align 1 %.02327, i64 %22, i1 false)
  %24 = load i32, ptr %0, align 8, !tbaa !64
  %25 = sext i32 %24 to i64
  %26 = getelementptr inbounds i8, ptr %.02327, i64 %25
  %27 = load i32, ptr %16, align 4, !tbaa !44
  %28 = sext i32 %27 to i64
  %29 = getelementptr inbounds i8, ptr %.02228, i64 %28
  %30 = add nuw nsw i32 %.029, 1
  %exitcond.not = icmp eq i32 %30, %10
  br i1 %exitcond.not, label %FillAlphaPlane.exit, label %23, !llvm.loop !68

31:                                               ; preds = %3
  %.not25 = icmp ne ptr %12, null
  %32 = icmp sgt i32 %10, 0
  %or.cond = select i1 %.not25, i1 %32, i1 false
  br i1 %or.cond, label %.lr.ph.i, label %FillAlphaPlane.exit

.lr.ph.i:                                         ; preds = %31
  %33 = sext i32 %8 to i64
  br label %34

34:                                               ; preds = %34, %.lr.ph.i
  %.08.i = phi i32 [ 0, %.lr.ph.i ], [ %36, %34 ]
  %.067.i = phi ptr [ %20, %.lr.ph.i ], [ %35, %34 ]
  tail call void @llvm.memset.p0.i64(ptr align 1 %.067.i, i8 -1, i64 %33, i1 false)
  %35 = getelementptr inbounds i8, ptr %.067.i, i64 %18
  %36 = add nuw nsw i32 %.08.i, 1
  %exitcond.not.i = icmp eq i32 %36, %10
  br i1 %exitcond.not.i, label %FillAlphaPlane.exit, label %34, !llvm.loop !69

FillAlphaPlane.exit:                              ; preds = %23, %34, %.preheader, %31
  ret i32 0
}